ccopy_reg
_reconstructor
p1
(cnumpy.lib.polynomial
poly1d
p2
c__builtin__
object
p3
NtRp4
(dp5
S'coeffs'
p6
cnumpy.core.multiarray
_reconstruct
p7
(cnumpy
ndarray
p8
(I0
tS'b'
tRp9
(I1
(I4
tcnumpy
dtype
p10
(S'f8'
I0
I1
tRp11
(I3
S'<'
NNNI-1
I-1
I0
tbI00
S',\xd5\xe3\xc5<\xb0-\xc0W\xf1F>r\x820@\x8f\x1f\x90\xe8\xdc\xb6\xfa\xbf\xaf\t\x01(\x81\xdb\xa5?'
tbsS'variable'
p12
S'x'
sS'order'
p13
I3
sb.